; Function Attrs: nofree norecurse nosync nounwind memory(read, argmem: readwrite, inaccessiblemem: none) uwtable
define hidden ptr @lj_debug_frame(ptr noundef readonly captures(address) %0, i32 noundef %1, ptr noundef writeonly captures(none) %2) local_unnamed_addr #0 {
  %4 = getelementptr inbounds nuw i8, ptr %0, i64 56
  %5 = load i64, ptr %4, align 8, !tbaa !4
  %6 = inttoptr i64 %5 to ptr
  %7 = getelementptr inbounds nuw i8, ptr %6, i64 8
  %8 = getelementptr inbounds nuw i8, ptr %0, i64 32
  %9 = load ptr, ptr %8, align 8, !tbaa !14
  %10 = getelementptr inbounds i8, ptr %9, i64 -8
  %11 = icmp ugt ptr %10, %7
  br i1 %11, label %.lr.ph.preheader, label %.loopexit

.lr.ph.preheader:                                 ; preds = %3
  %12 = getelementptr inbounds i8, ptr %9, i64 -16
  %13 = load i64, ptr %12, align 8, !tbaa !15
  %14 = and i64 %13, 140737488355327
  %15 = inttoptr i64 %14 to ptr
  %16 = icmp eq ptr %0, %15
  %17 = zext i1 %16 to i32
  %spec.select39 = add nsw i32 %1, %17
  %18 = icmp eq i32 %spec.select39, 0
  br i1 %18, label %.lr.ph._crit_edge, label %.lr.ph42

.lr.ph:                                           ; preds = %51
  %19 = getelementptr inbounds i8, ptr %.1, i64 -8
  %20 = load i64, ptr %19, align 8, !tbaa !15
  %21 = and i64 %20, 140737488355327
  %22 = inttoptr i64 %21 to ptr
  %23 = icmp eq ptr %0, %22
  %24 = zext i1 %23 to i32
  %spec.select = add nsw i32 %.2, %24
  %25 = icmp eq i32 %spec.select, 0
  br i1 %25, label %.lr.ph._crit_edge, label %.lr.ph42, !llvm.loop !16

.lr.ph._crit_edge:                                ; preds = %.lr.ph, %.lr.ph.preheader
  %.02232.lcssa = phi ptr [ %10, %.lr.ph.preheader ], [ %.0233140, %.lr.ph ]
  %.02331.lcssa = phi ptr [ %10, %.lr.ph.preheader ], [ %.1, %.lr.ph ]
  %26 = ptrtoint ptr %.02232.lcssa to i64
  %27 = ptrtoint ptr %.02331.lcssa to i64
  %28 = sub i64 %26, %27
  %29 = lshr exact i64 %28, 3
  %30 = trunc i64 %29 to i32
  br label %.loopexit

.lr.ph42:                                         ; preds = %.lr.ph.preheader, %.lr.ph
  %spec.select41 = phi i32 [ %spec.select, %.lr.ph ], [ %spec.select39, %.lr.ph.preheader ]
  %.0233140 = phi ptr [ %.1, %.lr.ph ], [ %10, %.lr.ph.preheader ]
  %31 = add nsw i32 %spec.select41, -1
  %32 = load i64, ptr %.0233140, align 8, !tbaa !15
  %33 = and i64 %32, 3
  %34 = icmp eq i64 %33, 0
  br i1 %34, label %35, label %45

35:                                               ; preds = %.lr.ph42
  %36 = inttoptr i64 %32 to ptr
  %37 = getelementptr inbounds i8, ptr %36, i64 -4
  %38 = load i32, ptr %37, align 4, !tbaa !18
  %39 = lshr i32 %38, 8
  %40 = and i32 %39, 255
  %41 = add nuw nsw i32 %40, 2
  %42 = zext nneg i32 %41 to i64
  %43 = sub nsw i64 0, %42
  %44 = getelementptr inbounds %union.TValue, ptr %.0233140, i64 %43
  br label %51

45:                                               ; preds = %.lr.ph42
  %46 = and i64 %32, 7
  %47 = icmp eq i64 %46, 3
  %spec.select26 = select i1 %47, i32 %spec.select41, i32 %31
  %48 = and i64 %32, -8
  %49 = sub i64 0, %48
  %50 = getelementptr inbounds i8, ptr %.0233140, i64 %49
  br label %51

51:                                               ; preds = %45, %35
  %.2 = phi i32 [ %31, %35 ], [ %spec.select26, %45 ]
  %.1 = phi ptr [ %44, %35 ], [ %50, %45 ]
  %52 = icmp ugt ptr %.1, %7
  br i1 %52, label %.lr.ph, label %.loopexit, !llvm.loop !16

.loopexit:                                        ; preds = %51, %3, %.lr.ph._crit_edge
  %storemerge = phi i32 [ %30, %.lr.ph._crit_edge ], [ %1, %3 ], [ %.2, %51 ]
  %.0 = phi ptr [ %.02331.lcssa, %.lr.ph._crit_edge ], [ null, %3 ], [ null, %51 ]
  store i32 %storemerge, ptr %2, align 4, !tbaa !18
  ret ptr %.0
}